; Function Attrs: mustprogress uwtable
define hidden void @_ZNK4cvc58internal13FloatingPoint16convertToBVTotalENS0_13BitVectorSizeERKNS0_12RoundingModeEbNS0_9BitVectorE(ptr dead_on_unwind noalias writable sret(%"class.cvc5::internal::BitVector") align 8 %0, ptr noundef nonnull readonly align 8 captures(none) dereferenceable(8) %1, i32 %2, ptr noundef nonnull align 4 dereferenceable(4) %3, i1 noundef zeroext %4, ptr noundef %5) local_unnamed_addr #3 align 2 personality ptr @__gxx_personality_v0 {
  %7 = alloca %"class.cvc5::internal::BitVector", align 8
  %8 = alloca %"class.cvc5::internal::BitVector", align 8
  %9 = load ptr, ptr %1, align 8, !tbaa !3
  %10 = load i32, ptr %5, align 8, !tbaa !24
  %11 = getelementptr inbounds nuw i8, ptr %5, i64 8
  br i1 %4, label %12, label %23

12:                                               ; preds = %6
  store i32 %10, ptr %7, align 8, !tbaa !24
  %13 = getelementptr inbounds nuw i8, ptr %7, i64 8
  call void @__gmpz_init_set(ptr noundef nonnull align 8 dereferenceable(16) %13, ptr noundef nonnull align 8 dereferenceable(16) %11)
  invoke void @_ZNK4cvc58internal20FloatingPointLiteral17convertToSBVTotalENS0_13BitVectorSizeERKNS0_12RoundingModeENS0_9BitVectorE(ptr dead_on_unwind writable sret(%"class.cvc5::internal::BitVector") align 8 %0, ptr noundef nonnull align 8 dereferenceable(64) %9, i32 %2, ptr noundef nonnull align 4 dereferenceable(4) %3, ptr noundef nonnull %7)
          to label %14 unwind label %18

14:                                               ; preds = %12
  invoke void @__gmpz_clear(ptr noundef nonnull align 8 dereferenceable(16) %13)
          to label %_ZN4cvc58internal9BitVectorD2Ev.exit unwind label %15

15:                                               ; preds = %14
  %16 = landingpad { ptr, i32 }
          catch ptr null
  %17 = extractvalue { ptr, i32 } %16, 0
  call void @__clang_call_terminate(ptr %17) #19
  unreachable

18:                                               ; preds = %12
  %19 = landingpad { ptr, i32 }
          cleanup
  invoke void @__gmpz_clear(ptr noundef nonnull align 8 dereferenceable(16) %13)
          to label %_ZN4cvc58internal9BitVectorD2Ev.exit10 unwind label %20

20:                                               ; preds = %18
  %21 = landingpad { ptr, i32 }
          catch ptr null
  %22 = extractvalue { ptr, i32 } %21, 0
  call void @__clang_call_terminate(ptr %22) #19
  unreachable

23:                                               ; preds = %6
  store i32 %10, ptr %8, align 8, !tbaa !24
  %24 = getelementptr inbounds nuw i8, ptr %8, i64 8
  call void @__gmpz_init_set(ptr noundef nonnull align 8 dereferenceable(16) %24, ptr noundef nonnull align 8 dereferenceable(16) %11)
  invoke void @_ZNK4cvc58internal20FloatingPointLiteral17convertToUBVTotalENS0_13BitVectorSizeERKNS0_12RoundingModeENS0_9BitVectorE(ptr dead_on_unwind writable sret(%"class.cvc5::internal::BitVector") align 8 %0, ptr noundef nonnull align 8 dereferenceable(64) %9, i32 %2, ptr noundef nonnull align 4 dereferenceable(4) %3, ptr noundef nonnull %8)
          to label %25 unwind label %29

25:                                               ; preds = %23
  invoke void @__gmpz_clear(ptr noundef nonnull align 8 dereferenceable(16) %24)
          to label %_ZN4cvc58internal9BitVectorD2Ev.exit unwind label %26

26:                                               ; preds = %25
  %27 = landingpad { ptr, i32 }
          catch ptr null
  %28 = extractvalue { ptr, i32 } %27, 0
  call void @__clang_call_terminate(ptr %28) #19
  unreachable

29:                                               ; preds = %23
  %30 = landingpad { ptr, i32 }
          cleanup
  invoke void @__gmpz_clear(ptr noundef nonnull align 8 dereferenceable(16) %24)
          to label %_ZN4cvc58internal9BitVectorD2Ev.exit10 unwind label %31

31:                                               ; preds = %29
  %32 = landingpad { ptr, i32 }
          catch ptr null
  %33 = extractvalue { ptr, i32 } %32, 0
  call void @__clang_call_terminate(ptr %33) #19
  unreachable

_ZN4cvc58internal9BitVectorD2Ev.exit:             ; preds = %25, %14
  ret void

_ZN4cvc58internal9BitVectorD2Ev.exit10:           ; preds = %29, %18
  %.pn = phi { ptr, i32 } [ %19, %18 ], [ %30, %29 ]
  resume { ptr, i32 } %.pn
}